target datalayout = "e-m:e-p270:32:32-p271:32:32-p272:64:64-i64:64-i128:128-f80:128-n8:16:32:64-S128"
target triple = "x86_64-pc-linux-gnu"

%struct.anon.4 = type { i32, i32 }
%struct.netxray_hdr = type { [8 x i8], i32, i32, i32, i32, i32, i32, i32, i32, i8, i8, [2 x i8], i8, [3 x i8], i32, i32, i32, [12 x i8], [4 x i8], [4 x i8], i8, [3 x i8], [4 x i8], i8, [3 x i8], [16 x i8], [14 x i8], i16 }
%struct.wtap_dumper = type { ptr, i32, i32, i32, i32, i8, i64, ptr, ptr, ptr, ptr, ptr, ptr, ptr, ptr, ptr, ptr, ptr, ptr, ptr, i32, i32, i32 }
%struct.netxray_dump_t = type { i8, i32, i32 }

@netxray_magic = internal constant [4 x i8] c"XCP\00", align 1
@vers_2_001 = internal constant [8 x i8] c"002.001\00", align 1

; Function Attrs: nounwind null_pointer_is_valid sspstrong uwtable
define internal i32 @wtap_encap_to_netxray_2_0_encap(i32 noundef %0) #11 {
  %2 = alloca i32, align 4
  %3 = alloca i32, align 4
  %4 = alloca i32, align 4
  %5 = alloca i32, align 4
  store i32 %0, ptr %3, align 4
  call void @llvm.lifetime.start.p0(i64 4, ptr %4) #12
  store i32 0, ptr %4, align 4
  br label %6

6:                                                ; preds = %25, %1
  %7 = load i32, ptr %4, align 4
  %8 = zext i32 %7 to i64
  %9 = icmp ult i64 %8, 8
  br i1 %9, label %10, label %28

10:                                               ; preds = %6
  %11 = load i32, ptr %3, align 4
  %12 = load i32, ptr %4, align 4
  %13 = zext i32 %12 to i64
  %14 = getelementptr [8 x %struct.anon.4], ptr @wtap_encap_2_0, i64 0, i64 %13
  %15 = getelementptr inbounds nuw %struct.anon.4, ptr %14, i32 0, i32 0
  %16 = load i32, ptr %15, align 8
  %17 = icmp eq i32 %11, %16
  br i1 %17, label %18, label %24

18:                                               ; preds = %10
  %19 = load i32, ptr %4, align 4
  %20 = zext i32 %19 to i64
  %21 = getelementptr [8 x %struct.anon.4], ptr @wtap_encap_2_0, i64 0, i64 %20
  %22 = getelementptr inbounds nuw %struct.anon.4, ptr %21, i32 0, i32 1
  %23 = load i32, ptr %22, align 4
  store i32 %23, ptr %2, align 4
  store i32 1, ptr %5, align 4
  br label %29

24:                                               ; preds = %10
  br label %25

25:                                               ; preds = %24
  %26 = load i32, ptr %4, align 4
  %27 = add i32 %26, 1
  store i32 %27, ptr %4, align 4
  br label %6, !llvm.loop !10

28:                                               ; preds = %6
  store i32 -1, ptr %2, align 4
  store i32 1, ptr %5, align 4
  br label %29

29:                                               ; preds = %28, %18
  call void @llvm.lifetime.end.p0(i64 4, ptr %4) #12
  %30 = load i32, ptr %2, align 4
  ret i32 %30
}

; Function Attrs: alwaysinline nounwind
define internal ptr @memcpy.inline(ptr noalias %0, ptr noalias %1, i64 %2) #9 {
  %4 = alloca ptr, align 8
  %5 = alloca ptr, align 8
  %6 = alloca i64, align 8
  store ptr %0, ptr %4, align 8
  store ptr %1, ptr %5, align 8
  store i64 %2, ptr %6, align 8
  %7 = load ptr, ptr %4, align 8
  %8 = load ptr, ptr %5, align 8
  %9 = load i64, ptr %6, align 8
  %10 = load ptr, ptr %4, align 8
  %11 = call i64 @llvm.objectsize.i64.p0(ptr %10, i1 false, i1 true, i1 true)
  %12 = call ptr @__memcpy_chk(ptr noundef %7, ptr noundef %8, i64 noundef %9, i64 noundef %11) #12
  ret ptr %12
}

; Function Attrs: alwaysinline nounwind
define internal ptr @memset.inline(ptr %0, i32 %1, i64 %2) #9 {
  %4 = alloca ptr, align 8
  %5 = alloca i32, align 4
  %6 = alloca i64, align 8
  store ptr %0, ptr %4, align 8
  store i32 %1, ptr %5, align 4
  store i64 %2, ptr %6, align 8
  %7 = load ptr, ptr %4, align 8
  %8 = load i32, ptr %5, align 4
  %9 = load i64, ptr %6, align 8
  %10 = load ptr, ptr %4, align 8
  %11 = call i64 @llvm.objectsize.i64.p0(ptr %10, i1 false, i1 true, i1 true)
  %12 = call ptr @__memset_chk(ptr noundef %7, i32 noundef %8, i64 noundef %9, i64 noundef %11) #12
  ret ptr %12
}

; Function Attrs: null_pointer_is_valid sspstrong uwtable
define internal zeroext i1 @netxray_dump_finish_2_0(ptr noundef %0, ptr noundef %1, ptr noundef %2) #0 {
  %4 = alloca i1, align 1
  %5 = alloca ptr, align 8
  %6 = alloca ptr, align 8
  %7 = alloca ptr, align 8
  %8 = alloca [124 x i8], align 16
  %9 = alloca ptr, align 8
  %10 = alloca i64, align 8
  %11 = alloca %struct.netxray_hdr, align 4
  %12 = alloca i32, align 4
  store ptr %0, ptr %5, align 8
  store ptr %1, ptr %6, align 8
  store ptr %2, ptr %7, align 8
  call void @llvm.lifetime.start.p0(i64 124, ptr %8) #12
  call void @llvm.lifetime.start.p0(i64 8, ptr %9) #12
  %13 = load ptr, ptr %5, align 8
  %14 = getelementptr inbounds nuw %struct.wtap_dumper, ptr %13, i32 0, i32 7
  %15 = load ptr, ptr %14, align 8
  store ptr %15, ptr %9, align 8
  call void @llvm.lifetime.start.p0(i64 8, ptr %10) #12
  call void @llvm.lifetime.start.p0(i64 124, ptr %11) #12
  %16 = load ptr, ptr %5, align 8
  %17 = load ptr, ptr %6, align 8
  %18 = call i64 @wtap_dump_file_tell(ptr noundef %16, ptr noundef %17)
  store i64 %18, ptr %10, align 8
  %19 = icmp eq i64 -1, %18
  br i1 %19, label %20, label %21

20:                                               ; preds = %3
  store i1 false, ptr %4, align 1
  store i32 1, ptr %12, align 4
  br label %85

21:                                               ; preds = %3
  %22 = load ptr, ptr %5, align 8
  %23 = load ptr, ptr %6, align 8
  %24 = call i64 @wtap_dump_file_seek(ptr noundef %22, i64 noundef 0, i32 noundef 0, ptr noundef %23)
  %25 = icmp eq i64 %24, -1
  br i1 %25, label %26, label %27

26:                                               ; preds = %21
  store i1 false, ptr %4, align 1
  store i32 1, ptr %12, align 4
  br label %85

27:                                               ; preds = %21
  %28 = load ptr, ptr %5, align 8
  %29 = load ptr, ptr %6, align 8
  %30 = call zeroext i1 @wtap_dump_file_write(ptr noundef %28, ptr noundef @netxray_magic, i64 noundef 4, ptr noundef %29)
  br i1 %30, label %32, label %31

31:                                               ; preds = %27
  store i1 false, ptr %4, align 1
  store i32 1, ptr %12, align 4
  br label %85

32:                                               ; preds = %27
  %33 = call ptr @memset.inline(ptr noundef %11, i32 noundef 0, i64 noundef 124) #12
  %34 = getelementptr inbounds nuw %struct.netxray_hdr, ptr %11, i32 0, i32 0
  %35 = getelementptr inbounds [8 x i8], ptr %34, i64 0, i64 0
  %36 = call ptr @memcpy.inline(ptr noundef %35, ptr noundef @vers_2_001, i64 noundef 8) #12
  %37 = load ptr, ptr %9, align 8
  %38 = getelementptr inbounds nuw %struct.netxray_dump_t, ptr %37, i32 0, i32 1
  %39 = load i32, ptr %38, align 4
  %40 = getelementptr inbounds nuw %struct.netxray_hdr, ptr %11, i32 0, i32 1
  store i32 %39, ptr %40, align 4
  %41 = load ptr, ptr %9, align 8
  %42 = getelementptr inbounds nuw %struct.netxray_dump_t, ptr %41, i32 0, i32 2
  %43 = load i32, ptr %42, align 4
  %44 = getelementptr inbounds nuw %struct.netxray_hdr, ptr %11, i32 0, i32 2
  store i32 %43, ptr %44, align 4
  %45 = getelementptr inbounds nuw %struct.netxray_hdr, ptr %11, i32 0, i32 4
  store i32 128, ptr %45, align 4
  %46 = load i64, ptr %10, align 8
  %47 = trunc i64 %46 to i32
  %48 = getelementptr inbounds nuw %struct.netxray_hdr, ptr %11, i32 0, i32 5
  store i32 %47, ptr %48, align 4
  %49 = load ptr, ptr %5, align 8
  %50 = getelementptr inbounds nuw %struct.wtap_dumper, ptr %49, i32 0, i32 3
  %51 = load i32, ptr %50, align 8
  %52 = call i32 @wtap_encap_to_netxray_2_0_encap(i32 noundef %51)
  %53 = trunc i32 %52 to i8
  %54 = getelementptr inbounds nuw %struct.netxray_hdr, ptr %11, i32 0, i32 9
  store i8 %53, ptr %54, align 4
  %55 = getelementptr inbounds nuw %struct.netxray_hdr, ptr %11, i32 0, i32 14
  store i32 0, ptr %55, align 4
  %56 = getelementptr inbounds nuw %struct.netxray_hdr, ptr %11, i32 0, i32 15
  store i32 0, ptr %56, align 4
  %57 = load ptr, ptr %5, align 8
  %58 = getelementptr inbounds nuw %struct.wtap_dumper, ptr %57, i32 0, i32 3
  %59 = load i32, ptr %58, align 8
  switch i32 %59, label %69 [
    i32 19, label %60
    i32 27, label %62
    i32 12, label %64
    i32 36, label %67
  ]

60:                                               ; preds = %32
  %61 = getelementptr inbounds nuw %struct.netxray_hdr, ptr %11, i32 0, i32 20
  store i8 3, ptr %61, align 4
  br label %71

62:                                               ; preds = %32
  %63 = getelementptr inbounds nuw %struct.netxray_hdr, ptr %11, i32 0, i32 20
  store i8 4, ptr %63, align 4
  br label %71

64:                                               ; preds = %32
  %65 = getelementptr inbounds nuw %struct.netxray_hdr, ptr %11, i32 0, i32 20
  store i8 6, ptr %65, align 4
  %66 = getelementptr inbounds nuw %struct.netxray_hdr, ptr %11, i32 0, i32 23
  store i8 0, ptr %66, align 4
  br label %71

67:                                               ; preds = %32
  %68 = getelementptr inbounds nuw %struct.netxray_hdr, ptr %11, i32 0, i32 20
  store i8 7, ptr %68, align 4
  br label %71

69:                                               ; preds = %32
  %70 = getelementptr inbounds nuw %struct.netxray_hdr, ptr %11, i32 0, i32 20
  store i8 0, ptr %70, align 4
  br label %71

71:                                               ; preds = %69, %67, %64, %62, %60
  %72 = getelementptr inbounds [124 x i8], ptr %8, i64 0, i64 0
  %73 = call ptr @memset.inline(ptr noundef %72, i32 noundef 0, i64 noundef 124) #12
  %74 = getelementptr inbounds [124 x i8], ptr %8, i64 0, i64 0
  %75 = call ptr @memcpy.inline(ptr noundef %74, ptr noundef %11, i64 noundef 124) #12
  %76 = load ptr, ptr %5, align 8
  %77 = getelementptr inbounds [124 x i8], ptr %8, i64 0, i64 0
  %78 = load ptr, ptr %6, align 8
  %79 = call zeroext i1 @wtap_dump_file_write(ptr noundef %76, ptr noundef %77, i64 noundef 124, ptr noundef %78)
  br i1 %79, label %81, label %80

80:                                               ; preds = %71
  store i1 false, ptr %4, align 1
  store i32 1, ptr %12, align 4
  br label %85

81:                                               ; preds = %71
  %82 = load i64, ptr %10, align 8
  %83 = load ptr, ptr %5, align 8
  %84 = getelementptr inbounds nuw %struct.wtap_dumper, ptr %83, i32 0, i32 6
  store i64 %82, ptr %84, align 8
  store i1 true, ptr %4, align 1
  store i32 1, ptr %12, align 4
  br label %85

85:                                               ; preds = %81, %80, %31, %26, %20
  call void @llvm.lifetime.end.p0(i64 124, ptr %11) #12
  call void @llvm.lifetime.end.p0(i64 8, ptr %10) #12
  call void @llvm.lifetime.end.p0(i64 8, ptr %9) #12
  call void @llvm.lifetime.end.p0(i64 124, ptr %8) #12
  %86 = load i1, ptr %4, align 1
  ret i1 %86
}